target datalayout = "e-m:e-p270:32:32-p271:32:32-p272:64:64-i64:64-i128:128-f80:128-n8:16:32:64-S128"
target triple = "x86_64-pc-linux-gnu"

%struct._generic_N_Vector = type { ptr, ptr, ptr }
%struct._SUNQRData = type { ptr, ptr, ptr }

; Function Attrs: nounwind uwtable
define i32 @SUNQRAdd_ICWY(ptr noundef %0, ptr noundef %1, ptr noundef %2, i32 noundef %3, i32 noundef %4, ptr noundef %5) #0 {
  %7 = alloca ptr, align 8
  %8 = alloca ptr, align 8
  %9 = alloca ptr, align 8
  %10 = alloca i32, align 4
  %11 = alloca i32, align 4
  %12 = alloca ptr, align 8
  %13 = alloca ptr, align 8
  %14 = alloca i64, align 8
  %15 = alloca i64, align 8
  %16 = alloca ptr, align 8
  store ptr %0, ptr %7, align 8, !tbaa !3
  store ptr %1, ptr %8, align 8, !tbaa !12
  store ptr %2, ptr %9, align 8, !tbaa !14
  store i32 %3, ptr %10, align 4, !tbaa !10
  store i32 %4, ptr %11, align 4, !tbaa !10
  store ptr %5, ptr %12, align 8, !tbaa !23
  call void @llvm.lifetime.start.p0(i64 8, ptr %13) #5
  %17 = load ptr, ptr %7, align 8, !tbaa !3
  %18 = getelementptr inbounds ptr, ptr %17, i64 0
  %19 = load ptr, ptr %18, align 8, !tbaa !14
  %20 = getelementptr inbounds nuw %struct._generic_N_Vector, ptr %19, i32 0, i32 2
  %21 = load ptr, ptr %20, align 8, !tbaa !16
  store ptr %21, ptr %13, align 8, !tbaa !20
  call void @llvm.lifetime.start.p0(i64 8, ptr %14) #5
  call void @llvm.lifetime.start.p0(i64 8, ptr %15) #5
  call void @llvm.lifetime.start.p0(i64 8, ptr %16) #5
  %22 = load ptr, ptr %12, align 8, !tbaa !23
  store ptr %22, ptr %16, align 8, !tbaa !24
  %23 = load ptr, ptr %9, align 8, !tbaa !14
  %24 = load ptr, ptr %16, align 8, !tbaa !24
  %25 = getelementptr inbounds nuw %struct._SUNQRData, ptr %24, i32 0, i32 0
  %26 = load ptr, ptr %25, align 8, !tbaa !26
  call void @N_VScale(double noundef 1.000000e+00, ptr noundef %23, ptr noundef %26)
  %27 = load i32, ptr %10, align 4, !tbaa !10
  %28 = icmp sgt i32 %27, 0
  br i1 %28, label %29, label %146

29:                                               ; preds = %6
  %30 = load i32, ptr %10, align 4, !tbaa !10
  %31 = load ptr, ptr %7, align 8, !tbaa !3
  %32 = load i32, ptr %10, align 4, !tbaa !10
  %33 = sub nsw i32 %32, 1
  %34 = sext i32 %33 to i64
  %35 = getelementptr inbounds ptr, ptr %31, i64 %34
  %36 = load ptr, ptr %35, align 8, !tbaa !14
  %37 = load ptr, ptr %7, align 8, !tbaa !3
  %38 = load ptr, ptr %16, align 8, !tbaa !24
  %39 = getelementptr inbounds nuw %struct._SUNQRData, ptr %38, i32 0, i32 2
  %40 = load ptr, ptr %39, align 8, !tbaa !30
  %41 = load i32, ptr %10, align 4, !tbaa !10
  %42 = sub nsw i32 %41, 1
  %43 = load i32, ptr %11, align 4, !tbaa !10
  %44 = mul nsw i32 %42, %43
  %45 = sext i32 %44 to i64
  %46 = getelementptr inbounds double, ptr %40, i64 %45
  %47 = call i32 @N_VDotProdMulti(i32 noundef %30, ptr noundef %36, ptr noundef %37, ptr noundef %46)
  %48 = load ptr, ptr %16, align 8, !tbaa !24
  %49 = getelementptr inbounds nuw %struct._SUNQRData, ptr %48, i32 0, i32 2
  %50 = load ptr, ptr %49, align 8, !tbaa !30
  %51 = load i32, ptr %10, align 4, !tbaa !10
  %52 = sub nsw i32 %51, 1
  %53 = load i32, ptr %11, align 4, !tbaa !10
  %54 = mul nsw i32 %52, %53
  %55 = load i32, ptr %10, align 4, !tbaa !10
  %56 = sub nsw i32 %55, 1
  %57 = add nsw i32 %54, %56
  %58 = sext i32 %57 to i64
  %59 = getelementptr inbounds double, ptr %50, i64 %58
  store double 1.000000e+00, ptr %59, align 8, !tbaa !21
  %60 = load i32, ptr %10, align 4, !tbaa !10
  %61 = load ptr, ptr %16, align 8, !tbaa !24
  %62 = getelementptr inbounds nuw %struct._SUNQRData, ptr %61, i32 0, i32 0
  %63 = load ptr, ptr %62, align 8, !tbaa !26
  %64 = load ptr, ptr %7, align 8, !tbaa !3
  %65 = load ptr, ptr %8, align 8, !tbaa !12
  %66 = load i32, ptr %10, align 4, !tbaa !10
  %67 = load i32, ptr %11, align 4, !tbaa !10
  %68 = mul nsw i32 %66, %67
  %69 = sext i32 %68 to i64
  %70 = getelementptr inbounds double, ptr %65, i64 %69
  %71 = call i32 @N_VDotProdMulti(i32 noundef %60, ptr noundef %63, ptr noundef %64, ptr noundef %70)
  store i64 0, ptr %15, align 8, !tbaa !28
  br label %72

72:                                               ; preds = %121, %29
  %73 = load i64, ptr %15, align 8, !tbaa !28
  %74 = load i32, ptr %10, align 4, !tbaa !10
  %75 = sext i32 %74 to i64
  %76 = icmp slt i64 %73, %75
  br i1 %76, label %77, label %124

77:                                               ; preds = %72
  %78 = load i64, ptr %15, align 8, !tbaa !28
  %79 = add nsw i64 %78, 1
  store i64 %79, ptr %14, align 8, !tbaa !28
  br label %80

80:                                               ; preds = %117, %77
  %81 = load i64, ptr %14, align 8, !tbaa !28
  %82 = load i32, ptr %10, align 4, !tbaa !10
  %83 = sext i32 %82 to i64
  %84 = icmp slt i64 %81, %83
  br i1 %84, label %85, label %120

85:                                               ; preds = %80
  %86 = load ptr, ptr %8, align 8, !tbaa !12
  %87 = load i32, ptr %10, align 4, !tbaa !10
  %88 = load i32, ptr %11, align 4, !tbaa !10
  %89 = mul nsw i32 %87, %88
  %90 = sext i32 %89 to i64
  %91 = load i64, ptr %15, align 8, !tbaa !28
  %92 = add nsw i64 %90, %91
  %93 = getelementptr inbounds double, ptr %86, i64 %92
  %94 = load double, ptr %93, align 8, !tbaa !21
  %95 = load ptr, ptr %16, align 8, !tbaa !24
  %96 = getelementptr inbounds nuw %struct._SUNQRData, ptr %95, i32 0, i32 2
  %97 = load ptr, ptr %96, align 8, !tbaa !30
  %98 = load i64, ptr %14, align 8, !tbaa !28
  %99 = load i32, ptr %11, align 4, !tbaa !10
  %100 = sext i32 %99 to i64
  %101 = mul nsw i64 %98, %100
  %102 = load i64, ptr %15, align 8, !tbaa !28
  %103 = add nsw i64 %101, %102
  %104 = getelementptr inbounds double, ptr %97, i64 %103
  %105 = load double, ptr %104, align 8, !tbaa !21
  %106 = load ptr, ptr %8, align 8, !tbaa !12
  %107 = load i32, ptr %10, align 4, !tbaa !10
  %108 = load i32, ptr %11, align 4, !tbaa !10
  %109 = mul nsw i32 %107, %108
  %110 = sext i32 %109 to i64
  %111 = load i64, ptr %14, align 8, !tbaa !28
  %112 = add nsw i64 %110, %111
  %113 = getelementptr inbounds double, ptr %106, i64 %112
  %114 = load double, ptr %113, align 8, !tbaa !21
  %115 = fneg double %94
  %116 = call double @llvm.fmuladd.f64(double %115, double %105, double %114)
  store double %116, ptr %113, align 8, !tbaa !21
  br label %117

117:                                              ; preds = %85
  %118 = load i64, ptr %14, align 8, !tbaa !28
  %119 = add nsw i64 %118, 1
  store i64 %119, ptr %14, align 8, !tbaa !28
  br label %80

120:                                              ; preds = %80
  br label %121

121:                                              ; preds = %120
  %122 = load i64, ptr %15, align 8, !tbaa !28
  %123 = add nsw i64 %122, 1
  store i64 %123, ptr %15, align 8, !tbaa !28
  br label %72

124:                                              ; preds = %72
  %125 = load i32, ptr %10, align 4, !tbaa !10
  %126 = load ptr, ptr %8, align 8, !tbaa !12
  %127 = load i32, ptr %10, align 4, !tbaa !10
  %128 = load i32, ptr %11, align 4, !tbaa !10
  %129 = mul nsw i32 %127, %128
  %130 = sext i32 %129 to i64
  %131 = getelementptr inbounds double, ptr %126, i64 %130
  %132 = load ptr, ptr %7, align 8, !tbaa !3
  %133 = load ptr, ptr %16, align 8, !tbaa !24
  %134 = getelementptr inbounds nuw %struct._SUNQRData, ptr %133, i32 0, i32 1
  %135 = load ptr, ptr %134, align 8, !tbaa !31
  %136 = call i32 @N_VLinearCombination(i32 noundef %125, ptr noundef %131, ptr noundef %132, ptr noundef %135)
  %137 = load ptr, ptr %16, align 8, !tbaa !24
  %138 = getelementptr inbounds nuw %struct._SUNQRData, ptr %137, i32 0, i32 0
  %139 = load ptr, ptr %138, align 8, !tbaa !26
  %140 = load ptr, ptr %16, align 8, !tbaa !24
  %141 = getelementptr inbounds nuw %struct._SUNQRData, ptr %140, i32 0, i32 1
  %142 = load ptr, ptr %141, align 8, !tbaa !31
  %143 = load ptr, ptr %16, align 8, !tbaa !24
  %144 = getelementptr inbounds nuw %struct._SUNQRData, ptr %143, i32 0, i32 0
  %145 = load ptr, ptr %144, align 8, !tbaa !26
  call void @N_VLinearSum(double noundef 1.000000e+00, ptr noundef %139, double noundef -1.000000e+00, ptr noundef %142, ptr noundef %145)
  br label %146

146:                                              ; preds = %124, %6
  %147 = load ptr, ptr %16, align 8, !tbaa !24
  %148 = getelementptr inbounds nuw %struct._SUNQRData, ptr %147, i32 0, i32 0
  %149 = load ptr, ptr %148, align 8, !tbaa !26
  %150 = load ptr, ptr %16, align 8, !tbaa !24
  %151 = getelementptr inbounds nuw %struct._SUNQRData, ptr %150, i32 0, i32 0
  %152 = load ptr, ptr %151, align 8, !tbaa !26
  %153 = call double @N_VDotProd(ptr noundef %149, ptr noundef %152)
  %154 = load ptr, ptr %8, align 8, !tbaa !12
  %155 = load i32, ptr %10, align 4, !tbaa !10
  %156 = load i32, ptr %11, align 4, !tbaa !10
  %157 = mul nsw i32 %155, %156
  %158 = load i32, ptr %10, align 4, !tbaa !10
  %159 = add nsw i32 %157, %158
  %160 = sext i32 %159 to i64
  %161 = getelementptr inbounds double, ptr %154, i64 %160
  store double %153, ptr %161, align 8, !tbaa !21
  %162 = load ptr, ptr %8, align 8, !tbaa !12
  %163 = load i32, ptr %10, align 4, !tbaa !10
  %164 = load i32, ptr %11, align 4, !tbaa !10
  %165 = mul nsw i32 %163, %164
  %166 = load i32, ptr %10, align 4, !tbaa !10
  %167 = add nsw i32 %165, %166
  %168 = sext i32 %167 to i64
  %169 = getelementptr inbounds double, ptr %162, i64 %168
  %170 = load double, ptr %169, align 8, !tbaa !21
  %171 = fcmp ole double %170, 0.000000e+00
  br i1 %171, label %172, label %173

172:                                              ; preds = %146
  br label %184

173:                                              ; preds = %146
  %174 = load ptr, ptr %8, align 8, !tbaa !12
  %175 = load i32, ptr %10, align 4, !tbaa !10
  %176 = load i32, ptr %11, align 4, !tbaa !10
  %177 = mul nsw i32 %175, %176
  %178 = load i32, ptr %10, align 4, !tbaa !10
  %179 = add nsw i32 %177, %178
  %180 = sext i32 %179 to i64
  %181 = getelementptr inbounds double, ptr %174, i64 %180
  %182 = load double, ptr %181, align 8, !tbaa !21
  %183 = call double @sqrt(double noundef %182) #5, !tbaa !10
  br label %184

184:                                              ; preds = %173, %172
  %185 = phi double [ 0.000000e+00, %172 ], [ %183, %173 ]
  %186 = load ptr, ptr %8, align 8, !tbaa !12
  %187 = load i32, ptr %10, align 4, !tbaa !10
  %188 = load i32, ptr %11, align 4, !tbaa !10
  %189 = mul nsw i32 %187, %188
  %190 = load i32, ptr %10, align 4, !tbaa !10
  %191 = add nsw i32 %189, %190
  %192 = sext i32 %191 to i64
  %193 = getelementptr inbounds double, ptr %186, i64 %192
  store double %185, ptr %193, align 8, !tbaa !21
  %194 = load ptr, ptr %8, align 8, !tbaa !12
  %195 = load i32, ptr %10, align 4, !tbaa !10
  %196 = load i32, ptr %11, align 4, !tbaa !10
  %197 = mul nsw i32 %195, %196
  %198 = load i32, ptr %10, align 4, !tbaa !10
  %199 = add nsw i32 %197, %198
  %200 = sext i32 %199 to i64
  %201 = getelementptr inbounds double, ptr %194, i64 %200
  %202 = load double, ptr %201, align 8, !tbaa !21
  %203 = fdiv double 1.000000e+00, %202
  %204 = load ptr, ptr %16, align 8, !tbaa !24
  %205 = getelementptr inbounds nuw %struct._SUNQRData, ptr %204, i32 0, i32 0
  %206 = load ptr, ptr %205, align 8, !tbaa !26
  %207 = load ptr, ptr %7, align 8, !tbaa !3
  %208 = load i32, ptr %10, align 4, !tbaa !10
  %209 = sext i32 %208 to i64
  %210 = getelementptr inbounds ptr, ptr %207, i64 %209
  %211 = load ptr, ptr %210, align 8, !tbaa !14
  call void @N_VScale(double noundef %203, ptr noundef %206, ptr noundef %211)
  call void @llvm.lifetime.end.p0(i64 8, ptr %16) #5
  call void @llvm.lifetime.end.p0(i64 8, ptr %15) #5
  call void @llvm.lifetime.end.p0(i64 8, ptr %14) #5
  call void @llvm.lifetime.end.p0(i64 8, ptr %13) #5
  ret i32 0
}