; Function Attrs: nounwind uwtable
define noundef i32 @SUNQRAdd_ICWY(ptr noundef %0, ptr noundef %1, ptr noundef %2, i32 noundef %3, i32 noundef %4, ptr noundef readonly captures(none) %5) local_unnamed_addr #0 {
  %7 = load ptr, ptr %5, align 8, !tbaa !14
  tail call void @N_VScale(double noundef 1.000000e+00, ptr noundef %2, ptr noundef %7) #7
  %8 = icmp sgt i32 %3, 0
  br i1 %8, label %9, label %49

9:                                                ; preds = %6
  %10 = add nsw i32 %3, -1
  %11 = zext nneg i32 %10 to i64
  %12 = getelementptr inbounds nuw ptr, ptr %0, i64 %11
  %13 = load ptr, ptr %12, align 8, !tbaa !3
  %14 = getelementptr inbounds nuw i8, ptr %5, i64 16
  %15 = load ptr, ptr %14, align 8, !tbaa !16
  %16 = mul nsw i32 %10, %4
  %17 = sext i32 %16 to i64
  %18 = getelementptr inbounds double, ptr %15, i64 %17
  %19 = tail call i32 @N_VDotProdMulti(i32 noundef %3, ptr noundef %13, ptr noundef %0, ptr noundef %18) #7
  %20 = load ptr, ptr %14, align 8, !tbaa !16
  %21 = add nsw i32 %16, %10
  %22 = sext i32 %21 to i64
  %23 = getelementptr inbounds double, ptr %20, i64 %22
  store double 1.000000e+00, ptr %23, align 8, !tbaa !12
  %24 = load ptr, ptr %5, align 8, !tbaa !14
  %25 = mul nsw i32 %4, %3
  %26 = sext i32 %25 to i64
  %27 = getelementptr double, ptr %1, i64 %26
  %28 = tail call i32 @N_VDotProdMulti(i32 noundef %3, ptr noundef %24, ptr noundef %0, ptr noundef %27) #7
  %29 = zext nneg i32 %3 to i64
  %30 = sext i32 %4 to i64
  br label %31

.loopexit:                                        ; preds = %35, %31
  %exitcond84.not = icmp eq i64 %32, %29
  br i1 %exitcond84.not, label %43, label %31

31:                                               ; preds = %9, %.loopexit
  %.07483 = phi i64 [ 0, %9 ], [ %32, %.loopexit ]
  %32 = add nuw nsw i64 %.07483, 1
  %33 = icmp samesign ult i64 %32, %29
  br i1 %33, label %.lr.ph, label %.loopexit

.lr.ph:                                           ; preds = %31
  %gep82 = getelementptr double, ptr %27, i64 %.07483
  %34 = load ptr, ptr %14, align 8, !tbaa !16
  %invariant.gep79 = getelementptr double, ptr %34, i64 %.07483
  br label %35

35:                                               ; preds = %.lr.ph, %35
  %.078 = phi i64 [ %32, %.lr.ph ], [ %42, %35 ]
  %36 = load double, ptr %gep82, align 8, !tbaa !12
  %37 = mul nsw i64 %.078, %30
  %gep80 = getelementptr double, ptr %invariant.gep79, i64 %37
  %38 = load double, ptr %gep80, align 8, !tbaa !12
  %gep = getelementptr double, ptr %27, i64 %.078
  %39 = load double, ptr %gep, align 8, !tbaa !12
  %40 = fneg double %36
  %41 = tail call double @llvm.fmuladd.f64(double %40, double %38, double %39)
  store double %41, ptr %gep, align 8, !tbaa !12
  %42 = add nuw nsw i64 %.078, 1
  %exitcond.not = icmp eq i64 %42, %29
  br i1 %exitcond.not, label %.loopexit, label %35

43:                                               ; preds = %.loopexit
  %44 = getelementptr inbounds nuw i8, ptr %5, i64 8
  %45 = load ptr, ptr %44, align 8, !tbaa !17
  %46 = tail call i32 @N_VLinearCombination(i32 noundef %3, ptr noundef %27, ptr noundef %0, ptr noundef %45) #7
  %47 = load ptr, ptr %5, align 8, !tbaa !14
  %48 = load ptr, ptr %44, align 8, !tbaa !17
  tail call void @N_VLinearSum(double noundef 1.000000e+00, ptr noundef %47, double noundef -1.000000e+00, ptr noundef %48, ptr noundef %47) #7
  br label %49

49:                                               ; preds = %43, %6
  %50 = load ptr, ptr %5, align 8, !tbaa !14
  %51 = tail call double @N_VDotProd(ptr noundef %50, ptr noundef %50) #7
  %52 = fcmp ugt double %51, 0.000000e+00
  br i1 %52, label %53, label %55

53:                                               ; preds = %49
  %54 = tail call double @sqrt(double noundef %51) #7, !tbaa !8
  br label %55

55:                                               ; preds = %49, %53
  %56 = phi double [ %54, %53 ], [ 0.000000e+00, %49 ]
  %57 = add i32 %4, 1
  %58 = mul i32 %57, %3
  %59 = sext i32 %58 to i64
  %60 = getelementptr inbounds double, ptr %1, i64 %59
  store double %56, ptr %60, align 8, !tbaa !12
  %61 = fdiv double 1.000000e+00, %56
  %62 = load ptr, ptr %5, align 8, !tbaa !14
  %63 = sext i32 %3 to i64
  %64 = getelementptr inbounds ptr, ptr %0, i64 %63
  %65 = load ptr, ptr %64, align 8, !tbaa !3
  tail call void @N_VScale(double noundef %61, ptr noundef %62, ptr noundef %65) #7
  ret i32 0
}